; Function Attrs: mustprogress nofree norecurse nosync nounwind willreturn memory(read, inaccessiblemem: none) uwtable
define { ptr, i32 } @_ZNK10OpenSubdiv6v3_6_03Bfr9PatchTree17GetSubPatchPointsEi(ptr nocapture noundef nonnull readonly align 8 dereferenceable(176) %0, i32 noundef %1) local_unnamed_addr #2 align 2 {
  %3 = getelementptr inbounds nuw i8, ptr %0, i64 48
  %4 = getelementptr inbounds nuw i8, ptr %0, i64 20
  %5 = load i32, ptr %4, align 4
  %6 = mul nsw i32 %5, %1
  %7 = sext i32 %6 to i64
  %8 = load ptr, ptr %3, align 8
  %9 = getelementptr inbounds i32, ptr %8, i64 %7
  %10 = getelementptr inbounds nuw i8, ptr %0, i64 72
  %11 = sext i32 %1 to i64
  %12 = load ptr, ptr %10, align 8
  %13 = getelementptr inbounds %"struct.OpenSubdiv::v3_6_0::Far::PatchParam", ptr %12, i64 %11
  %14 = load i64, ptr %13, align 4
  %15 = and i64 %14, 137438953472
  %.not = icmp eq i64 %15, 0
  %.in.v = select i1 %.not, i64 16, i64 12
  %.in = getelementptr inbounds nuw i8, ptr %0, i64 %.in.v
  %16 = load i32, ptr %.in, align 4
  %.fca.0.insert = insertvalue { ptr, i32 } poison, ptr %9, 0
  %.fca.1.insert = insertvalue { ptr, i32 } %.fca.0.insert, i32 %16, 1
  ret { ptr, i32 } %.fca.1.insert
}